(dp0
S'S3E_EXT_FLURRY'
p1
NsS'I3D_OS_LINUX'
p2
NsS'IW_TRACE_CHANNEL_FLURRY'
p3
S'1'
p4
sS'IW_PLATFORM_LINUX'
p5
NsS'I3D_ARCH_ARM'
p6
NsS'IW_SDK'
p7
NsS'IW_USE_ASSERTIONS'
p8
NsS'IW_MKF_S3EFLURRY_BUILD'
p9
NsS'IW_USE_TRACING'
p10
NsS'S3E_ANDROID'
p11
NsS'S3E_BUILD_EXT'
p12
NsS'IW_ASSERTION_CHANNEL_FLURRY'
p13
g4
sS'IW_TRACE_CHANNEL_FLURRY_VERBOSE'
p14
S'2'
p15
sS'IW_MKF_EDK'
p16
NsS'I3D_PLATFORM_LINUX'
p17
NsS'IW_DEBUG'
p18
NsS'ANDROID'
p19
Ns.